target datalayout = "e-m:e-p270:32:32-p271:32:32-p272:64:64-i64:64-i128:128-f80:128-n8:16:32:64-S128"
target triple = "x86_64-pc-linux-gnu"

%struct.darktable_t = type { %struct.dt_codepath_t, i32, i32, ptr, ptr, ptr, ptr, ptr, ptr, ptr, ptr, ptr, ptr, ptr, ptr, ptr, ptr, ptr, ptr, ptr, ptr, ptr, ptr, ptr, ptr, ptr, ptr, ptr, ptr, ptr, [64 x %struct.dt_pthread_mutex_t], %struct.dt_pthread_mutex_t, %struct.dt_pthread_mutex_t, %struct.dt_pthread_mutex_t, %struct.dt_pthread_mutex_t, %struct.dt_pthread_mutex_t, ptr, ptr, ptr, ptr, ptr, ptr, ptr, ptr, ptr, ptr, ptr, ptr, ptr, %struct.dt_lua_state_t, ptr, double, ptr, i32, [47 x i32], i32, i32, ptr, ptr, %struct.dt_sys_resources_t, %struct.dt_backthumb_t, %struct.dt_gimp_t }
%struct.dt_codepath_t = type { i8, [3 x i8] }
%struct.dt_pthread_mutex_t = type { %union.pthread_mutex_t }
%union.pthread_mutex_t = type { %struct.__pthread_mutex_s }
%struct.__pthread_mutex_s = type { i32, i32, i32, i32, i32, i16, i16, %struct.__pthread_internal_list }
%struct.__pthread_internal_list = type { ptr, ptr }
%struct.dt_lua_state_t = type { i32 }
%struct.dt_sys_resources_t = type { i64, i64, ptr, ptr, i32 }
%struct.dt_backthumb_t = type { double, double, i32, i32, i32, i32 }
%struct.dt_gimp_t = type { i32, ptr, ptr, i32, i32 }
%struct._GdkRGBA = type { double, double, double, double }
%struct.dt_gui_gtk_t = type { ptr, %struct.dt_gui_widgets_t, %struct.dt_gui_scrollbars_t, i32, ptr, i32, [39 x %struct._GdkRGBA], i32, i32, i32, i32, i32, double, double, double, double, ptr, double, double, double, double, i32, i32, [4096 x i8], i32, i32, i32, %struct.dt_pthread_mutex_t }
%struct.dt_gui_widgets_t = type { ptr, ptr, ptr, ptr, i32, i32, i32 }
%struct.dt_gui_scrollbars_t = type { ptr, ptr, i32 }
%struct.dt_ui_t = type { [16 x ptr], [6 x ptr], ptr, ptr, ptr, ptr, ptr, ptr, ptr }
%struct._cairo_rectangle_int = type { i32, i32, i32, i32 }
%struct.dt_control_t = type { i32, ptr, %struct.dt_action_t, %struct.dt_action_t, %struct.dt_action_t, %struct.dt_action_t, %struct.dt_action_t, %struct.dt_action_t, %struct.dt_action_t, %struct.dt_action_t, %struct.dt_action_t, %struct.dt_action_t, %struct.dt_action_t, ptr, ptr, ptr, i32, ptr, i32, i32, ptr, ptr, [256 x i8], i32, double, i32, i32, i64, i32, i32, i32, double, double, i32, i32, i32, i32, i32, i32, [8 x [1000 x i8]], i32, i32, %struct.dt_pthread_mutex_t, i32, i32, [2 x [300 x i8]], i32, i32, %struct.dt_pthread_mutex_t, %struct.dt_pthread_mutex_t, %struct.dt_pthread_mutex_t, double, i32, i32, i32, %struct.dt_pthread_mutex_t, %struct.dt_pthread_mutex_t, %union.pthread_cond_t, i32, ptr, i64, i64, ptr, [5 x ptr], [5 x i64], %struct.dt_pthread_mutex_t, [3 x ptr], [3 x i8], [3 x i64], %struct.anon.0, %struct.anon.2 }
%struct.dt_action_t = type { i32, ptr, ptr, ptr, ptr, ptr }
%union.pthread_cond_t = type { %struct.__pthread_cond_s }
%struct.__pthread_cond_s = type { %union.__atomic_wide_counter, %union.__atomic_wide_counter, [2 x i32], [2 x i32], i32, i32, [2 x i32] }
%union.__atomic_wide_counter = type { i64 }
%struct.anon.0 = type { ptr, i64, i64, double, %struct.dt_pthread_mutex_t, %struct.anon.1 }
%struct.anon.1 = type { ptr, ptr, ptr, ptr, ptr, ptr }
%struct.anon.2 = type { %struct.anon.3 }
%struct.anon.3 = type { ptr, ptr }

@darktable = external global %struct.darktable_t, align 8

; Function Attrs: nounwind uwtable
define ptr @dt_ui_center(ptr noundef %0) #0 {
  %2 = alloca ptr, align 8
  store ptr %0, ptr %2, align 8, !tbaa !76
  %3 = load ptr, ptr %2, align 8, !tbaa !76
  %4 = getelementptr inbounds nuw %struct.dt_ui_t, ptr %3, i32 0, i32 2
  %5 = load ptr, ptr %4, align 8, !tbaa !147
  ret ptr %5
}

; Function Attrs: nounwind uwtable
define void @dt_gui_gtk_run(ptr noundef %0) #0 {
  %2 = alloca ptr, align 8
  %3 = alloca ptr, align 8
  %4 = alloca %struct._cairo_rectangle_int, align 4
  %5 = alloca i32, align 4
  %6 = alloca i32, align 4
  %7 = alloca i32, align 4
  store ptr %0, ptr %2, align 8, !tbaa !116
  call void @llvm.lifetime.start.p0(i64 8, ptr %3) #15
  %8 = load ptr, ptr getelementptr inbounds nuw (%struct.darktable_t, ptr @darktable, i32 0, i32 14), align 8, !tbaa !24
  %9 = getelementptr inbounds nuw %struct.dt_gui_gtk_t, ptr %8, i32 0, i32 0
  %10 = load ptr, ptr %9, align 8, !tbaa !72
  %11 = call ptr @dt_ui_center(ptr noundef %10)
  store ptr %11, ptr %3, align 8, !tbaa !6
  call void @llvm.lifetime.start.p0(i64 16, ptr %4) #15
  %12 = load ptr, ptr %3, align 8, !tbaa !6
  call void @gtk_widget_get_allocation(ptr noundef %12, ptr noundef %4)
  %13 = load ptr, ptr getelementptr inbounds nuw (%struct.darktable_t, ptr @darktable, i32 0, i32 12), align 8, !tbaa !130
  %14 = getelementptr inbounds nuw %struct.dt_control_t, ptr %13, i32 0, i32 24
  store double 8.000000e+00, ptr %14, align 8, !tbaa !207
  call void @llvm.lifetime.start.p0(i64 4, ptr %5) #15
  %15 = load ptr, ptr getelementptr inbounds nuw (%struct.darktable_t, ptr @darktable, i32 0, i32 12), align 8, !tbaa !130
  %16 = getelementptr inbounds nuw %struct.dt_control_t, ptr %15, i32 0, i32 24
  %17 = load double, ptr %16, align 8, !tbaa !207
  %18 = fptosi double %17 to i32
  store i32 %18, ptr %5, align 4, !tbaa !17
  %19 = load ptr, ptr getelementptr inbounds nuw (%struct.darktable_t, ptr @darktable, i32 0, i32 11), align 8, !tbaa !167
  %20 = getelementptr inbounds nuw %struct._cairo_rectangle_int, ptr %4, i32 0, i32 2
  %21 = load i32, ptr %20, align 4, !tbaa !80
  %22 = load i32, ptr %5, align 4, !tbaa !17
  %23 = mul nsw i32 2, %22
  %24 = sub nsw i32 %21, %23
  %25 = getelementptr inbounds nuw %struct._cairo_rectangle_int, ptr %4, i32 0, i32 3
  %26 = load i32, ptr %25, align 4, !tbaa !82
  %27 = load i32, ptr %5, align 4, !tbaa !17
  %28 = mul nsw i32 2, %27
  %29 = sub nsw i32 %26, %28
  call void @dt_view_manager_configure(ptr noundef %19, i32 noundef %24, i32 noundef %29)
  %30 = call i32 (...) @dt_control_running()
  %31 = icmp ne i32 %30, 0
  br i1 %31, label %32, label %35

32:                                               ; preds = %1
  call void @llvm.lifetime.start.p0(i64 4, ptr %6) #15
  store i32 1, ptr %6, align 4, !tbaa !17
  %33 = load i32, ptr %6, align 4
  store atomic i32 %33, ptr getelementptr inbounds nuw (%struct.darktable_t, ptr @darktable, i32 0, i32 56) seq_cst, align 4
  call void @llvm.lifetime.end.p0(i64 4, ptr %6) #15
  call void @gtk_main()
  call void @llvm.lifetime.start.p0(i64 4, ptr %7) #15
  store i32 0, ptr %7, align 4, !tbaa !17
  %34 = load i32, ptr %7, align 4
  store atomic i32 %34, ptr getelementptr inbounds nuw (%struct.darktable_t, ptr @darktable, i32 0, i32 56) seq_cst, align 4
  call void @llvm.lifetime.end.p0(i64 4, ptr %7) #15
  br label %35

35:                                               ; preds = %32, %1
  call void @llvm.lifetime.end.p0(i64 4, ptr %5) #15
  call void @llvm.lifetime.end.p0(i64 16, ptr %4) #15
  call void @llvm.lifetime.end.p0(i64 8, ptr %3) #15
  ret void
}