; Function Attrs: nounwind uwtable
define void @dt_gui_gtk_run(ptr noundef readnone captures(none) %0) local_unnamed_addr #0 {
  %2 = alloca %struct._cairo_rectangle_int, align 4
  %3 = load ptr, ptr getelementptr inbounds nuw (i8, ptr @darktable, i64 104), align 8, !tbaa !15
  %4 = load ptr, ptr %3, align 8, !tbaa !63
  %5 = getelementptr inbounds nuw i8, ptr %4, i64 176
  %6 = load ptr, ptr %5, align 8, !tbaa !112
  call void @llvm.lifetime.start.p0(i64 16, ptr nonnull %2) #18
  call void @gtk_widget_get_allocation(ptr noundef %6, ptr noundef nonnull %2) #18
  %7 = load ptr, ptr getelementptr inbounds nuw (i8, ptr @darktable, i64 88), align 8, !tbaa !120
  %8 = getelementptr inbounds nuw i8, ptr %7, i64 872
  store double 8.000000e+00, ptr %8, align 8, !tbaa !182
  %9 = load ptr, ptr getelementptr inbounds nuw (i8, ptr @darktable, i64 80), align 8, !tbaa !144
  %10 = getelementptr inbounds nuw i8, ptr %2, i64 8
  %11 = load i32, ptr %10, align 4, !tbaa !68
  %12 = add nsw i32 %11, -16
  %13 = getelementptr inbounds nuw i8, ptr %2, i64 12
  %14 = load i32, ptr %13, align 4, !tbaa !70
  %15 = add nsw i32 %14, -16
  call void @dt_view_manager_configure(ptr noundef %9, i32 noundef %12, i32 noundef %15) #18
  %16 = call i32 (...) @dt_control_running() #18
  %.not = icmp eq i32 %16, 0
  br i1 %.not, label %18, label %17

17:                                               ; preds = %1
  store atomic i32 1, ptr getelementptr inbounds nuw (i8, ptr @darktable, i64 3324) seq_cst, align 4
  call void @gtk_main() #18
  store atomic i32 0, ptr getelementptr inbounds nuw (i8, ptr @darktable, i64 3324) seq_cst, align 4
  br label %18

18:                                               ; preds = %17, %1
  call void @llvm.lifetime.end.p0(i64 16, ptr nonnull %2) #18
  ret void
}